; Function Attrs: nounwind uwtable
define noalias noundef ptr @Llb_Nonlin4Multiply(ptr noundef %0, ptr noundef %1, ptr noundef readonly captures(none) %2) local_unnamed_addr #0 {
  %4 = getelementptr i8, ptr %2, i64 4
  %.val12 = load i32, ptr %4, align 4, !tbaa !23
  %5 = tail call noalias dereferenceable_or_null(16) ptr @malloc(i64 noundef 16) #19
  %6 = add i32 %.val12, -1
  %or.cond.i = icmp ult i32 %6, 7
  %spec.store.select.i = select i1 %or.cond.i, i32 8, i32 %.val12
  %7 = getelementptr inbounds nuw i8, ptr %5, i64 4
  store i32 0, ptr %7, align 4, !tbaa !23
  store i32 %spec.store.select.i, ptr %5, align 8, !tbaa !48
  %.not.i = icmp eq i32 %spec.store.select.i, 0
  br i1 %.not.i, label %Vec_PtrAlloc.exit, label %8

8:                                                ; preds = %3
  %9 = sext i32 %spec.store.select.i to i64
  %10 = shl nsw i64 %9, 3
  %11 = tail call noalias ptr @malloc(i64 noundef %10) #19
  br label %Vec_PtrAlloc.exit

Vec_PtrAlloc.exit:                                ; preds = %3, %8
  %12 = phi ptr [ %11, %8 ], [ null, %3 ]
  %13 = getelementptr inbounds nuw i8, ptr %5, i64 8
  store ptr %12, ptr %13, align 8, !tbaa !25
  %14 = icmp sgt i32 %.val12, 0
  br i1 %14, label %.lr.ph, label %.critedge

.lr.ph:                                           ; preds = %Vec_PtrAlloc.exit
  %15 = getelementptr i8, ptr %2, i64 8
  br label %16

16:                                               ; preds = %.lr.ph, %Vec_PtrPush.exit
  %17 = phi i32 [ %spec.store.select.i, %.lr.ph ], [ %43, %Vec_PtrPush.exit ]
  %18 = phi i32 [ 0, %.lr.ph ], [ %45, %Vec_PtrPush.exit ]
  %indvars.iv = phi i64 [ 0, %.lr.ph ], [ %indvars.iv.next, %Vec_PtrPush.exit ]
  %.val13 = load ptr, ptr %15, align 8, !tbaa !25
  %19 = getelementptr inbounds nuw ptr, ptr %.val13, i64 %indvars.iv
  %20 = load ptr, ptr %19, align 8, !tbaa !26
  %21 = tail call ptr @Cudd_bddAnd(ptr noundef %0, ptr noundef %20, ptr noundef %1) #18
  tail call void @Cudd_Ref(ptr noundef %21) #18
  %22 = icmp eq i32 %18, %17
  br i1 %22, label %23, label %.Vec_PtrGrow.exit11_crit_edge.i

.Vec_PtrGrow.exit11_crit_edge.i:                  ; preds = %16
  %.pre.i = load ptr, ptr %13, align 8, !tbaa !25
  br label %Vec_PtrPush.exit

23:                                               ; preds = %16
  %24 = icmp slt i32 %17, 16
  br i1 %24, label %25, label %32

25:                                               ; preds = %23
  %26 = load ptr, ptr %13, align 8, !tbaa !25
  %.not9.i.i = icmp eq ptr %26, null
  br i1 %.not9.i.i, label %29, label %27

27:                                               ; preds = %25
  %28 = tail call dereferenceable_or_null(128) ptr @realloc(ptr noundef nonnull %26, i64 noundef 128) #20
  br label %Vec_PtrGrow.exit.i

29:                                               ; preds = %25
  %30 = tail call noalias dereferenceable_or_null(128) ptr @malloc(i64 noundef 128) #19
  br label %Vec_PtrGrow.exit.i

Vec_PtrGrow.exit.i:                               ; preds = %29, %27
  %31 = phi ptr [ %28, %27 ], [ %30, %29 ]
  store ptr %31, ptr %13, align 8, !tbaa !25
  store i32 16, ptr %5, align 8, !tbaa !48
  br label %Vec_PtrPush.exit

32:                                               ; preds = %23
  %33 = shl nuw nsw i32 %17, 1
  %34 = load ptr, ptr %13, align 8, !tbaa !25
  %.not9.i10.i = icmp eq ptr %34, null
  %35 = zext nneg i32 %33 to i64
  %36 = shl nuw nsw i64 %35, 3
  br i1 %.not9.i10.i, label %39, label %37

37:                                               ; preds = %32
  %38 = tail call ptr @realloc(ptr noundef nonnull %34, i64 noundef %36) #20
  br label %41

39:                                               ; preds = %32
  %40 = tail call noalias ptr @malloc(i64 noundef %36) #19
  br label %41

41:                                               ; preds = %39, %37
  %42 = phi ptr [ %38, %37 ], [ %40, %39 ]
  store ptr %42, ptr %13, align 8, !tbaa !25
  store i32 %33, ptr %5, align 8, !tbaa !48
  br label %Vec_PtrPush.exit

Vec_PtrPush.exit:                                 ; preds = %.Vec_PtrGrow.exit11_crit_edge.i, %Vec_PtrGrow.exit.i, %41
  %43 = phi i32 [ %17, %.Vec_PtrGrow.exit11_crit_edge.i ], [ %33, %41 ], [ 16, %Vec_PtrGrow.exit.i ]
  %44 = phi ptr [ %.pre.i, %.Vec_PtrGrow.exit11_crit_edge.i ], [ %42, %41 ], [ %31, %Vec_PtrGrow.exit.i ]
  %45 = add nuw nsw i32 %18, 1
  store i32 %45, ptr %7, align 4, !tbaa !23
  %46 = zext nneg i32 %18 to i64
  %47 = getelementptr inbounds nuw ptr, ptr %44, i64 %46
  store ptr %21, ptr %47, align 8, !tbaa !26
  %indvars.iv.next = add nuw nsw i64 %indvars.iv, 1
  %.val = load i32, ptr %4, align 4, !tbaa !23
  %48 = sext i32 %.val to i64
  %49 = icmp slt i64 %indvars.iv.next, %48
  br i1 %49, label %16, label %.critedge, !llvm.loop !86

.critedge:                                        ; preds = %Vec_PtrPush.exit, %Vec_PtrAlloc.exit
  ret ptr %5
}